
kernel.elf:     file format elf32-littlearm


Disassembly of section .text:

00008000 <_start>:
    8000:	ea00001d 	b	807c <_ns_end>
    8004:	e59ff014 	ldr	pc, [pc, #20]	; 8020 <UndefAddr>
    8008:	e59ff014 	ldr	pc, [pc, #20]	; 8024 <SWIAddr>
    800c:	e59ff014 	ldr	pc, [pc, #20]	; 8028 <PAbortAddr>
    8010:	e59ff014 	ldr	pc, [pc, #20]	; 802c <DAbortAddr>
    8014:	e59ff014 	ldr	pc, [pc, #20]	; 8030 <ReservedAddr>
    8018:	e59ff014 	ldr	pc, [pc, #20]	; 8034 <IRQAddr>
    801c:	e59ff014 	ldr	pc, [pc, #20]	; 8038 <FIQAddr>

00008020 <UndefAddr>:
    8020:	00008e40 	andeq	r8, r0, r0, asr #28

00008024 <SWIAddr>:
    8024:	00008e44 	andeq	r8, r0, r4, asr #28

00008028 <PAbortAddr>:
    8028:	00008e54 	andeq	r8, r0, r4, asr lr

0000802c <DAbortAddr>:
    802c:	00008e58 	andeq	r8, r0, r8, asr lr

00008030 <ReservedAddr>:
    8030:	00000000 	andeq	r0, r0, r0

00008034 <IRQAddr>:
    8034:	00008e5c 	andeq	r8, r0, ip, asr lr

00008038 <FIQAddr>:
    8038:	00008e60 	andeq	r8, r0, r0, ror #28

0000803c <_ns_start>:
    803c:	e59ff018 	ldr	pc, [pc, #24]	; 805c <ns_Reset>
    8040:	e59ff018 	ldr	pc, [pc, #24]	; 8060 <ns_UndefAddr>
    8044:	e59ff018 	ldr	pc, [pc, #24]	; 8064 <ns_SWIAddr>
    8048:	e59ff018 	ldr	pc, [pc, #24]	; 8068 <ns_PAbortAddr>
    804c:	e59ff018 	ldr	pc, [pc, #24]	; 806c <ns_DAbortAddr>
    8050:	e59ff018 	ldr	pc, [pc, #24]	; 8070 <ns_ReservedAddr>
    8054:	e59ff018 	ldr	pc, [pc, #24]	; 8074 <ns_IRQAddr>
    8058:	e59ff018 	ldr	pc, [pc, #24]	; 8078 <ns_FIQAddr>

0000805c <ns_Reset>:
    805c:	00008e64 	andeq	r8, r0, r4, ror #28

00008060 <ns_UndefAddr>:
    8060:	00008e74 	andeq	r8, r0, r4, ror lr

00008064 <ns_SWIAddr>:
    8064:	00008e84 	andeq	r8, r0, r4, lsl #29

00008068 <ns_PAbortAddr>:
    8068:	00008e94 	muleq	r0, r4, lr

0000806c <ns_DAbortAddr>:
    806c:	00008ea4 	andeq	r8, r0, r4, lsr #29

00008070 <ns_ReservedAddr>:
    8070:	00000000 	andeq	r0, r0, r0

00008074 <ns_IRQAddr>:
    8074:	00008eb4 			; <UNDEFINED> instruction: 0x00008eb4

00008078 <ns_FIQAddr>:
    8078:	00008ec4 	andeq	r8, r0, r4, asr #29

0000807c <_ns_end>:
    807c:	e59f00f4 	ldr	r0, [pc, #244]	; 8178 <Init_clock+0x40>
    8080:	f1020016 	cps	#22
    8084:	e59fd0ec 	ldr	sp, [pc, #236]	; 8178 <Init_clock+0x40>
    8088:	e321f0d1 	msr	CPSR_c, #209	; 0xd1
    808c:	e240d000 	sub	sp, r0, #0
    8090:	e321f0d2 	msr	CPSR_c, #210	; 0xd2
    8094:	e240d040 	sub	sp, r0, #64	; 0x40
    8098:	e321f0d7 	msr	CPSR_c, #215	; 0xd7
    809c:	e240d080 	sub	sp, r0, #128	; 0x80
    80a0:	e321f0db 	msr	CPSR_c, #219	; 0xdb
    80a4:	e240d0c0 	sub	sp, r0, #192	; 0xc0
    80a8:	e321f0d3 	msr	CPSR_c, #211	; 0xd3
    80ac:	e240dc01 	sub	sp, r0, #256	; 0x100
    80b0:	eb000241 	bl	89bc <bootmain>

000080b4 <CPU_SVC32_MODE>:
    80b4:	e10f0000 	mrs	r0, CPSR
    80b8:	e3c0001f 	bic	r0, r0, #31
    80bc:	e38000d3 	orr	r0, r0, #211	; 0xd3
    80c0:	e129f000 	msr	CPSR_fc, r0
    80c4:	e12fff1e 	bx	lr

000080c8 <Disable_MMU_L1cache>:
    80c8:	ee110f10 	mrc	15, 0, r0, cr1, cr0, {0}
    80cc:	e3c00a02 	bic	r0, r0, #8192	; 0x2000
    80d0:	e3c00a01 	bic	r0, r0, #4096	; 0x1000
    80d4:	e3c00004 	bic	r0, r0, #4
    80d8:	e3c00001 	bic	r0, r0, #1
    80dc:	ee010f10 	mcr	15, 0, r0, cr1, cr0, {0}
    80e0:	e12fff1e 	bx	lr

000080e4 <Init_aips>:
    80e4:	e59f0090 	ldr	r0, [pc, #144]	; 817c <Init_clock+0x44>
    80e8:	e59f1090 	ldr	r1, [pc, #144]	; 8180 <Init_clock+0x48>
    80ec:	e5801000 	str	r1, [r0]
    80f0:	e5801004 	str	r1, [r0, #4]
    80f4:	e3a01000 	mov	r1, #0
    80f8:	e5801040 	str	r1, [r0, #64]	; 0x40
    80fc:	e5801044 	str	r1, [r0, #68]	; 0x44
    8100:	e5801048 	str	r1, [r0, #72]	; 0x48
    8104:	e580104c 	str	r1, [r0, #76]	; 0x4c
    8108:	e5801050 	str	r1, [r0, #80]	; 0x50
    810c:	e59f0070 	ldr	r0, [pc, #112]	; 8184 <Init_clock+0x4c>
    8110:	e59f1068 	ldr	r1, [pc, #104]	; 8180 <Init_clock+0x48>
    8114:	e5801000 	str	r1, [r0]
    8118:	e5801004 	str	r1, [r0, #4]
    811c:	e3a01000 	mov	r1, #0
    8120:	e5801040 	str	r1, [r0, #64]	; 0x40
    8124:	e5801044 	str	r1, [r0, #68]	; 0x44
    8128:	e5801048 	str	r1, [r0, #72]	; 0x48
    812c:	e580104c 	str	r1, [r0, #76]	; 0x4c
    8130:	e5801050 	str	r1, [r0, #80]	; 0x50
    8134:	e12fff1e 	bx	lr

00008138 <Init_clock>:
    8138:	e59f0048 	ldr	r0, [pc, #72]	; 8188 <Init_clock+0x50>
    813c:	e59f1048 	ldr	r1, [pc, #72]	; 818c <Init_clock+0x54>
    8140:	e5801068 	str	r1, [r0, #104]	; 0x68
    8144:	e59f1044 	ldr	r1, [pc, #68]	; 8190 <Init_clock+0x58>
    8148:	e580106c 	str	r1, [r0, #108]	; 0x6c
    814c:	e59f1040 	ldr	r1, [pc, #64]	; 8194 <Init_clock+0x5c>
    8150:	e5801070 	str	r1, [r0, #112]	; 0x70
    8154:	e59f103c 	ldr	r1, [pc, #60]	; 8198 <Init_clock+0x60>
    8158:	e5801074 	str	r1, [r0, #116]	; 0x74
    815c:	e59f1038 	ldr	r1, [pc, #56]	; 819c <Init_clock+0x64>
    8160:	e5801078 	str	r1, [r0, #120]	; 0x78
    8164:	e59f1034 	ldr	r1, [pc, #52]	; 81a0 <Init_clock+0x68>
    8168:	e580107c 	str	r1, [r0, #124]	; 0x7c
    816c:	e3a01fff 	mov	r1, #1020	; 0x3fc
    8170:	e5801080 	str	r1, [r0, #128]	; 0x80
    8174:	e12fff1e 	bx	lr
    8178:	00080000 	andeq	r0, r8, r0
    817c:	0207c000 	andeq	ip, r7, #0
    8180:	77777777 			; <UNDEFINED> instruction: 0x77777777
    8184:	0217c000 	andseq	ip, r7, #0
    8188:	020c4000 	andeq	r4, ip, #0
    818c:	00c0003f 	sbceq	r0, r0, pc, lsr r0
    8190:	0030fc00 	eorseq	pc, r0, r0, lsl #24
    8194:	0fffc000 	svceq	0x00ffc000
    8198:	3ff00000 	svccc	0x00f00000	; IMB
    819c:	00fff300 	rscseq	pc, pc, r0, lsl #6
    81a0:	0f0000c3 	svceq	0x000000c3

000081a4 <uart_lcr>:
    81a4:	e92d4800 	push	{fp, lr}
    81a8:	e28db004 	add	fp, sp, #4
    81ac:	e59f000c 	ldr	r0, [pc, #12]	; 81c0 <uart_lcr+0x1c>
    81b0:	eb0002db 	bl	8d24 <GET32>
    81b4:	e1a03000 	mov	r3, r0
    81b8:	e1a00003 	mov	r0, r3
    81bc:	e8bd8800 	pop	{fp, pc}
    81c0:	20215054 	eorcs	r5, r1, r4, asr r0

000081c4 <uart_recv>:
    81c4:	e92d4800 	push	{fp, lr}
    81c8:	e28db004 	add	fp, sp, #4
    81cc:	e59f0030 	ldr	r0, [pc, #48]	; 8204 <uart_recv+0x40>
    81d0:	eb0002d3 	bl	8d24 <GET32>
    81d4:	e1a03000 	mov	r3, r0
    81d8:	e2033001 	and	r3, r3, #1
    81dc:	e3530000 	cmp	r3, #0
    81e0:	0a000000 	beq	81e8 <uart_recv+0x24>
    81e4:	ea000000 	b	81ec <uart_recv+0x28>
    81e8:	eafffff7 	b	81cc <uart_recv+0x8>
    81ec:	e59f0014 	ldr	r0, [pc, #20]	; 8208 <uart_recv+0x44>
    81f0:	eb0002cb 	bl	8d24 <GET32>
    81f4:	e1a03000 	mov	r3, r0
    81f8:	e6ef3073 	uxtb	r3, r3
    81fc:	e1a00003 	mov	r0, r3
    8200:	e8bd8800 	pop	{fp, pc}
    8204:	20215054 	eorcs	r5, r1, r4, asr r0
    8208:	20215040 	eorcs	r5, r1, r0, asr #32

0000820c <uart_send>:
    820c:	e92d4800 	push	{fp, lr}
    8210:	e28db004 	add	fp, sp, #4
    8214:	e24dd008 	sub	sp, sp, #8
    8218:	e50b0008 	str	r0, [fp, #-8]
    821c:	e59f002c 	ldr	r0, [pc, #44]	; 8250 <uart_send+0x44>
    8220:	eb0002bf 	bl	8d24 <GET32>
    8224:	e1a03000 	mov	r3, r0
    8228:	e2033020 	and	r3, r3, #32
    822c:	e3530000 	cmp	r3, #0
    8230:	0a000000 	beq	8238 <uart_send+0x2c>
    8234:	ea000000 	b	823c <uart_send+0x30>
    8238:	eafffff7 	b	821c <uart_send+0x10>
    823c:	e59f0010 	ldr	r0, [pc, #16]	; 8254 <uart_send+0x48>
    8240:	e51b1008 	ldr	r1, [fp, #-8]
    8244:	eb0002b0 	bl	8d0c <PUT32>
    8248:	e24bd004 	sub	sp, fp, #4
    824c:	e8bd8800 	pop	{fp, pc}
    8250:	20215054 	eorcs	r5, r1, r4, asr r0
    8254:	20215040 	eorcs	r5, r1, r0, asr #32

00008258 <uart_flush>:
    8258:	e92d4800 	push	{fp, lr}
    825c:	e28db004 	add	fp, sp, #4
    8260:	e59f001c 	ldr	r0, [pc, #28]	; 8284 <uart_flush+0x2c>
    8264:	eb0002ae 	bl	8d24 <GET32>
    8268:	e1a03000 	mov	r3, r0
    826c:	e2033c01 	and	r3, r3, #256	; 0x100
    8270:	e3530000 	cmp	r3, #0
    8274:	1a000000 	bne	827c <uart_flush+0x24>
    8278:	ea000000 	b	8280 <uart_flush+0x28>
    827c:	eafffff7 	b	8260 <uart_flush+0x8>
    8280:	e8bd8800 	pop	{fp, pc}
    8284:	20215054 	eorcs	r5, r1, r4, asr r0

00008288 <hexstring>:
    8288:	e92d4800 	push	{fp, lr}
    828c:	e28db004 	add	fp, sp, #4
    8290:	e24dd008 	sub	sp, sp, #8
    8294:	e50b0008 	str	r0, [fp, #-8]
    8298:	e51b0008 	ldr	r0, [fp, #-8]
    829c:	eb000005 	bl	82b8 <hexstrings>
    82a0:	e3a0000d 	mov	r0, #13
    82a4:	ebffffd8 	bl	820c <uart_send>
    82a8:	e3a0000a 	mov	r0, #10
    82ac:	ebffffd6 	bl	820c <uart_send>
    82b0:	e24bd004 	sub	sp, fp, #4
    82b4:	e8bd8800 	pop	{fp, pc}

000082b8 <hexstrings>:
    82b8:	e92d4800 	push	{fp, lr}
    82bc:	e28db004 	add	fp, sp, #4
    82c0:	e24dd010 	sub	sp, sp, #16
    82c4:	e50b0010 	str	r0, [fp, #-16]
    82c8:	e3a03020 	mov	r3, #32
    82cc:	e50b3008 	str	r3, [fp, #-8]
    82d0:	e51b3008 	ldr	r3, [fp, #-8]
    82d4:	e2433004 	sub	r3, r3, #4
    82d8:	e50b3008 	str	r3, [fp, #-8]
    82dc:	e51b3008 	ldr	r3, [fp, #-8]
    82e0:	e51b2010 	ldr	r2, [fp, #-16]
    82e4:	e1a03332 	lsr	r3, r2, r3
    82e8:	e203300f 	and	r3, r3, #15
    82ec:	e50b300c 	str	r3, [fp, #-12]
    82f0:	e51b300c 	ldr	r3, [fp, #-12]
    82f4:	e3530009 	cmp	r3, #9
    82f8:	9a000003 	bls	830c <hexstrings+0x54>
    82fc:	e51b300c 	ldr	r3, [fp, #-12]
    8300:	e2833037 	add	r3, r3, #55	; 0x37
    8304:	e50b300c 	str	r3, [fp, #-12]
    8308:	ea000002 	b	8318 <hexstrings+0x60>
    830c:	e51b300c 	ldr	r3, [fp, #-12]
    8310:	e2833030 	add	r3, r3, #48	; 0x30
    8314:	e50b300c 	str	r3, [fp, #-12]
    8318:	e51b000c 	ldr	r0, [fp, #-12]
    831c:	ebffffba 	bl	820c <uart_send>
    8320:	e51b3008 	ldr	r3, [fp, #-8]
    8324:	e3530000 	cmp	r3, #0
    8328:	1a000000 	bne	8330 <hexstrings+0x78>
    832c:	ea000000 	b	8334 <hexstrings+0x7c>
    8330:	eaffffe6 	b	82d0 <hexstrings+0x18>
    8334:	e3a00020 	mov	r0, #32
    8338:	ebffffb3 	bl	820c <uart_send>
    833c:	e24bd004 	sub	sp, fp, #4
    8340:	e8bd8800 	pop	{fp, pc}

00008344 <uart_init>:
    8344:	e92d4800 	push	{fp, lr}
    8348:	e28db004 	add	fp, sp, #4
    834c:	e24dd008 	sub	sp, sp, #8
    8350:	e59f0130 	ldr	r0, [pc, #304]	; 8488 <uart_init+0x144>
    8354:	e3a01001 	mov	r1, #1
    8358:	eb00026b 	bl	8d0c <PUT32>
    835c:	e59f0128 	ldr	r0, [pc, #296]	; 848c <uart_init+0x148>
    8360:	e3a01000 	mov	r1, #0
    8364:	eb000268 	bl	8d0c <PUT32>
    8368:	e59f0120 	ldr	r0, [pc, #288]	; 8490 <uart_init+0x14c>
    836c:	e3a01000 	mov	r1, #0
    8370:	eb000265 	bl	8d0c <PUT32>
    8374:	e59f0118 	ldr	r0, [pc, #280]	; 8494 <uart_init+0x150>
    8378:	e3a01003 	mov	r1, #3
    837c:	eb000262 	bl	8d0c <PUT32>
    8380:	e59f0110 	ldr	r0, [pc, #272]	; 8498 <uart_init+0x154>
    8384:	e3a01000 	mov	r1, #0
    8388:	eb00025f 	bl	8d0c <PUT32>
    838c:	e59f00f8 	ldr	r0, [pc, #248]	; 848c <uart_init+0x148>
    8390:	e3a01000 	mov	r1, #0
    8394:	eb00025c 	bl	8d0c <PUT32>
    8398:	e59f00fc 	ldr	r0, [pc, #252]	; 849c <uart_init+0x158>
    839c:	e3a010c6 	mov	r1, #198	; 0xc6
    83a0:	eb000259 	bl	8d0c <PUT32>
    83a4:	e59f00f4 	ldr	r0, [pc, #244]	; 84a0 <uart_init+0x15c>
    83a8:	e59f10f4 	ldr	r1, [pc, #244]	; 84a4 <uart_init+0x160>
    83ac:	eb000256 	bl	8d0c <PUT32>
    83b0:	e59f00f0 	ldr	r0, [pc, #240]	; 84a8 <uart_init+0x164>
    83b4:	eb00025a 	bl	8d24 <GET32>
    83b8:	e50b0008 	str	r0, [fp, #-8]
    83bc:	e51b3008 	ldr	r3, [fp, #-8]
    83c0:	e3c33a07 	bic	r3, r3, #28672	; 0x7000
    83c4:	e50b3008 	str	r3, [fp, #-8]
    83c8:	e51b3008 	ldr	r3, [fp, #-8]
    83cc:	e3833a02 	orr	r3, r3, #8192	; 0x2000
    83d0:	e50b3008 	str	r3, [fp, #-8]
    83d4:	e51b3008 	ldr	r3, [fp, #-8]
    83d8:	e3c3390e 	bic	r3, r3, #229376	; 0x38000
    83dc:	e50b3008 	str	r3, [fp, #-8]
    83e0:	e51b3008 	ldr	r3, [fp, #-8]
    83e4:	e3833801 	orr	r3, r3, #65536	; 0x10000
    83e8:	e50b3008 	str	r3, [fp, #-8]
    83ec:	e59f00b4 	ldr	r0, [pc, #180]	; 84a8 <uart_init+0x164>
    83f0:	e51b1008 	ldr	r1, [fp, #-8]
    83f4:	eb000244 	bl	8d0c <PUT32>
    83f8:	e59f00ac 	ldr	r0, [pc, #172]	; 84ac <uart_init+0x168>
    83fc:	e3a01000 	mov	r1, #0
    8400:	eb000241 	bl	8d0c <PUT32>
    8404:	e3a03000 	mov	r3, #0
    8408:	e50b3008 	str	r3, [fp, #-8]
    840c:	ea000004 	b	8424 <uart_init+0xe0>
    8410:	e51b0008 	ldr	r0, [fp, #-8]
    8414:	eb000247 	bl	8d38 <dummy>
    8418:	e51b3008 	ldr	r3, [fp, #-8]
    841c:	e2833001 	add	r3, r3, #1
    8420:	e50b3008 	str	r3, [fp, #-8]
    8424:	e51b3008 	ldr	r3, [fp, #-8]
    8428:	e3530095 	cmp	r3, #149	; 0x95
    842c:	9afffff7 	bls	8410 <uart_init+0xcc>
    8430:	e59f0078 	ldr	r0, [pc, #120]	; 84b0 <uart_init+0x16c>
    8434:	e3a01903 	mov	r1, #49152	; 0xc000
    8438:	eb000233 	bl	8d0c <PUT32>
    843c:	e3a03000 	mov	r3, #0
    8440:	e50b3008 	str	r3, [fp, #-8]
    8444:	ea000004 	b	845c <uart_init+0x118>
    8448:	e51b0008 	ldr	r0, [fp, #-8]
    844c:	eb000239 	bl	8d38 <dummy>
    8450:	e51b3008 	ldr	r3, [fp, #-8]
    8454:	e2833001 	add	r3, r3, #1
    8458:	e50b3008 	str	r3, [fp, #-8]
    845c:	e51b3008 	ldr	r3, [fp, #-8]
    8460:	e3530095 	cmp	r3, #149	; 0x95
    8464:	9afffff7 	bls	8448 <uart_init+0x104>
    8468:	e59f0040 	ldr	r0, [pc, #64]	; 84b0 <uart_init+0x16c>
    846c:	e3a01000 	mov	r1, #0
    8470:	eb000225 	bl	8d0c <PUT32>
    8474:	e59f0014 	ldr	r0, [pc, #20]	; 8490 <uart_init+0x14c>
    8478:	e3a01003 	mov	r1, #3
    847c:	eb000222 	bl	8d0c <PUT32>
    8480:	e24bd004 	sub	sp, fp, #4
    8484:	e8bd8800 	pop	{fp, pc}
    8488:	20215004 	eorcs	r5, r1, r4
    848c:	20215044 	eorcs	r5, r1, r4, asr #32
    8490:	20215060 	eorcs	r5, r1, r0, rrx
    8494:	2021504c 	eorcs	r5, r1, ip, asr #32
    8498:	20215050 	eorcs	r5, r1, r0, asr r0
    849c:	20215048 	eorcs	r5, r1, r8, asr #32
    84a0:	20215068 	eorcs	r5, r1, r8, rrx
    84a4:	0000010e 	andeq	r0, r0, lr, lsl #2
    84a8:	20200004 	eorcs	r0, r0, r4
    84ac:	20200094 	mlacs	r0, r4, r0, r0
    84b0:	20200098 	mlacs	r0, r8, r0, r0

000084b4 <uprint>:
    84b4:	e92d4800 	push	{fp, lr}
    84b8:	e28db004 	add	fp, sp, #4
    84bc:	e24dd010 	sub	sp, sp, #16
    84c0:	e50b0010 	str	r0, [fp, #-16]
    84c4:	e3a03000 	mov	r3, #0
    84c8:	e50b3008 	str	r3, [fp, #-8]
    84cc:	ea000010 	b	8514 <uprint+0x60>
    84d0:	e51b3008 	ldr	r3, [fp, #-8]
    84d4:	e51b2010 	ldr	r2, [fp, #-16]
    84d8:	e0823003 	add	r3, r2, r3
    84dc:	e5d33000 	ldrb	r3, [r3]
    84e0:	e353000a 	cmp	r3, #10
    84e4:	1a000001 	bne	84f0 <uprint+0x3c>
    84e8:	e3a0000d 	mov	r0, #13
    84ec:	ebffff46 	bl	820c <uart_send>
    84f0:	e51b3008 	ldr	r3, [fp, #-8]
    84f4:	e51b2010 	ldr	r2, [fp, #-16]
    84f8:	e0823003 	add	r3, r2, r3
    84fc:	e5d33000 	ldrb	r3, [r3]
    8500:	e1a00003 	mov	r0, r3
    8504:	ebffff40 	bl	820c <uart_send>
    8508:	e51b3008 	ldr	r3, [fp, #-8]
    850c:	e2833001 	add	r3, r3, #1
    8510:	e50b3008 	str	r3, [fp, #-8]
    8514:	e51b3008 	ldr	r3, [fp, #-8]
    8518:	e51b2010 	ldr	r2, [fp, #-16]
    851c:	e0823003 	add	r3, r2, r3
    8520:	e5d33000 	ldrb	r3, [r3]
    8524:	e3530000 	cmp	r3, #0
    8528:	1affffe8 	bne	84d0 <uprint+0x1c>
    852c:	e24bd004 	sub	sp, fp, #4
    8530:	e8bd8800 	pop	{fp, pc}

00008534 <printint>:
    8534:	e92d4810 	push	{r4, fp, lr}
    8538:	e28db008 	add	fp, sp, #8
    853c:	e24dd02c 	sub	sp, sp, #44	; 0x2c
    8540:	e50b0028 	str	r0, [fp, #-40]	; 0xffffffd8
    8544:	e50b102c 	str	r1, [fp, #-44]	; 0xffffffd4
    8548:	e50b2030 	str	r2, [fp, #-48]	; 0xffffffd0
    854c:	e51b3030 	ldr	r3, [fp, #-48]	; 0xffffffd0
    8550:	e3530000 	cmp	r3, #0
    8554:	0a00000a 	beq	8584 <printint+0x50>
    8558:	e51b3028 	ldr	r3, [fp, #-40]	; 0xffffffd8
    855c:	e1a03fa3 	lsr	r3, r3, #31
    8560:	e6ef3073 	uxtb	r3, r3
    8564:	e50b3030 	str	r3, [fp, #-48]	; 0xffffffd0
    8568:	e51b3030 	ldr	r3, [fp, #-48]	; 0xffffffd0
    856c:	e3530000 	cmp	r3, #0
    8570:	0a000003 	beq	8584 <printint+0x50>
    8574:	e51b3028 	ldr	r3, [fp, #-40]	; 0xffffffd8
    8578:	e2633000 	rsb	r3, r3, #0
    857c:	e50b3014 	str	r3, [fp, #-20]	; 0xffffffec
    8580:	ea000001 	b	858c <printint+0x58>
    8584:	e51b3028 	ldr	r3, [fp, #-40]	; 0xffffffd8
    8588:	e50b3014 	str	r3, [fp, #-20]	; 0xffffffec
    858c:	e3a03000 	mov	r3, #0
    8590:	e50b3010 	str	r3, [fp, #-16]
    8594:	e51b4010 	ldr	r4, [fp, #-16]
    8598:	e2843001 	add	r3, r4, #1
    859c:	e50b3010 	str	r3, [fp, #-16]
    85a0:	e51b302c 	ldr	r3, [fp, #-44]	; 0xffffffd4
    85a4:	e51b2014 	ldr	r2, [fp, #-20]	; 0xffffffec
    85a8:	e1a00002 	mov	r0, r2
    85ac:	e1a01003 	mov	r1, r3
    85b0:	eb000188 	bl	8bd8 <__aeabi_uidivmod>
    85b4:	e1a03001 	mov	r3, r1
    85b8:	e59f20b0 	ldr	r2, [pc, #176]	; 8670 <printint+0x13c>
    85bc:	e7d22003 	ldrb	r2, [r2, r3]
    85c0:	e3e03017 	mvn	r3, #23
    85c4:	e24b000c 	sub	r0, fp, #12
    85c8:	e0801004 	add	r1, r0, r4
    85cc:	e0813003 	add	r3, r1, r3
    85d0:	e5c32000 	strb	r2, [r3]
    85d4:	e51b302c 	ldr	r3, [fp, #-44]	; 0xffffffd4
    85d8:	e51b0014 	ldr	r0, [fp, #-20]	; 0xffffffec
    85dc:	e1a01003 	mov	r1, r3
    85e0:	eb00013f 	bl	8ae4 <__aeabi_uidiv>
    85e4:	e1a03000 	mov	r3, r0
    85e8:	e50b3014 	str	r3, [fp, #-20]	; 0xffffffec
    85ec:	e51b3014 	ldr	r3, [fp, #-20]	; 0xffffffec
    85f0:	e3530000 	cmp	r3, #0
    85f4:	1affffe6 	bne	8594 <printint+0x60>
    85f8:	e51b3030 	ldr	r3, [fp, #-48]	; 0xffffffd0
    85fc:	e3530000 	cmp	r3, #0
    8600:	0a000009 	beq	862c <printint+0xf8>
    8604:	e51b3010 	ldr	r3, [fp, #-16]
    8608:	e2832001 	add	r2, r3, #1
    860c:	e50b2010 	str	r2, [fp, #-16]
    8610:	e3e02017 	mvn	r2, #23
    8614:	e24b100c 	sub	r1, fp, #12
    8618:	e0813003 	add	r3, r1, r3
    861c:	e0833002 	add	r3, r3, r2
    8620:	e3a0202d 	mov	r2, #45	; 0x2d
    8624:	e5c32000 	strb	r2, [r3]
    8628:	ea000008 	b	8650 <printint+0x11c>
    862c:	ea000007 	b	8650 <printint+0x11c>
    8630:	e3e03017 	mvn	r3, #23
    8634:	e51b2010 	ldr	r2, [fp, #-16]
    8638:	e24b000c 	sub	r0, fp, #12
    863c:	e0802002 	add	r2, r0, r2
    8640:	e0823003 	add	r3, r2, r3
    8644:	e5d33000 	ldrb	r3, [r3]
    8648:	e1a00003 	mov	r0, r3
    864c:	ebfffeee 	bl	820c <uart_send>
    8650:	e51b3010 	ldr	r3, [fp, #-16]
    8654:	e2433001 	sub	r3, r3, #1
    8658:	e50b3010 	str	r3, [fp, #-16]
    865c:	e51b3010 	ldr	r3, [fp, #-16]
    8660:	e3530000 	cmp	r3, #0
    8664:	aafffff1 	bge	8630 <printint+0xfc>
    8668:	e24bd008 	sub	sp, fp, #8
    866c:	e8bd8810 	pop	{r4, fp, pc}
    8670:	000090fc 	strdeq	r9, [r0], -ip

00008674 <cprintf>:
    8674:	e92d000f 	push	{r0, r1, r2, r3}
    8678:	e92d4800 	push	{fp, lr}
    867c:	e28db004 	add	fp, sp, #4
    8680:	e24dd010 	sub	sp, sp, #16
    8684:	e28b3008 	add	r3, fp, #8
    8688:	e50b300c 	str	r3, [fp, #-12]
    868c:	e3a03000 	mov	r3, #0
    8690:	e50b3008 	str	r3, [fp, #-8]
    8694:	ea00005c 	b	880c <cprintf+0x198>
    8698:	e51b3014 	ldr	r3, [fp, #-20]	; 0xffffffec
    869c:	e3530025 	cmp	r3, #37	; 0x25
    86a0:	0a000008 	beq	86c8 <cprintf+0x54>
    86a4:	e51b3014 	ldr	r3, [fp, #-20]	; 0xffffffec
    86a8:	e353000a 	cmp	r3, #10
    86ac:	1a000001 	bne	86b8 <cprintf+0x44>
    86b0:	e3a0000d 	mov	r0, #13
    86b4:	ebfffed4 	bl	820c <uart_send>
    86b8:	e51b3014 	ldr	r3, [fp, #-20]	; 0xffffffec
    86bc:	e1a00003 	mov	r0, r3
    86c0:	ebfffed1 	bl	820c <uart_send>
    86c4:	ea00004d 	b	8800 <cprintf+0x18c>
    86c8:	e59b2004 	ldr	r2, [fp, #4]
    86cc:	e51b3008 	ldr	r3, [fp, #-8]
    86d0:	e2833001 	add	r3, r3, #1
    86d4:	e50b3008 	str	r3, [fp, #-8]
    86d8:	e51b3008 	ldr	r3, [fp, #-8]
    86dc:	e0823003 	add	r3, r2, r3
    86e0:	e5d33000 	ldrb	r3, [r3]
    86e4:	e50b3014 	str	r3, [fp, #-20]	; 0xffffffec
    86e8:	e51b3014 	ldr	r3, [fp, #-20]	; 0xffffffec
    86ec:	e3530000 	cmp	r3, #0
    86f0:	1a000000 	bne	86f8 <cprintf+0x84>
    86f4:	ea00004c 	b	882c <cprintf+0x1b8>
    86f8:	e51b3014 	ldr	r3, [fp, #-20]	; 0xffffffec
    86fc:	e3530070 	cmp	r3, #112	; 0x70
    8700:	0a000014 	beq	8758 <cprintf+0xe4>
    8704:	e3530070 	cmp	r3, #112	; 0x70
    8708:	ca000004 	bgt	8720 <cprintf+0xac>
    870c:	e3530025 	cmp	r3, #37	; 0x25
    8710:	0a000031 	beq	87dc <cprintf+0x168>
    8714:	e3530064 	cmp	r3, #100	; 0x64
    8718:	0a000005 	beq	8734 <cprintf+0xc0>
    871c:	ea000031 	b	87e8 <cprintf+0x174>
    8720:	e3530073 	cmp	r3, #115	; 0x73
    8724:	0a000014 	beq	877c <cprintf+0x108>
    8728:	e3530078 	cmp	r3, #120	; 0x78
    872c:	0a000009 	beq	8758 <cprintf+0xe4>
    8730:	ea00002c 	b	87e8 <cprintf+0x174>
    8734:	e51b300c 	ldr	r3, [fp, #-12]
    8738:	e2832004 	add	r2, r3, #4
    873c:	e50b200c 	str	r2, [fp, #-12]
    8740:	e5933000 	ldr	r3, [r3]
    8744:	e1a00003 	mov	r0, r3
    8748:	e3a0100a 	mov	r1, #10
    874c:	e3a02001 	mov	r2, #1
    8750:	ebffff77 	bl	8534 <printint>
    8754:	ea000029 	b	8800 <cprintf+0x18c>
    8758:	e51b300c 	ldr	r3, [fp, #-12]
    875c:	e2832004 	add	r2, r3, #4
    8760:	e50b200c 	str	r2, [fp, #-12]
    8764:	e5933000 	ldr	r3, [r3]
    8768:	e1a00003 	mov	r0, r3
    876c:	e3a01010 	mov	r1, #16
    8770:	e3a02000 	mov	r2, #0
    8774:	ebffff6e 	bl	8534 <printint>
    8778:	ea000020 	b	8800 <cprintf+0x18c>
    877c:	e51b300c 	ldr	r3, [fp, #-12]
    8780:	e2832004 	add	r2, r3, #4
    8784:	e50b200c 	str	r2, [fp, #-12]
    8788:	e5933000 	ldr	r3, [r3]
    878c:	e50b3010 	str	r3, [fp, #-16]
    8790:	e51b3010 	ldr	r3, [fp, #-16]
    8794:	e3530000 	cmp	r3, #0
    8798:	1a000002 	bne	87a8 <cprintf+0x134>
    879c:	e59f3098 	ldr	r3, [pc, #152]	; 883c <cprintf+0x1c8>
    87a0:	e50b3010 	str	r3, [fp, #-16]
    87a4:	ea000007 	b	87c8 <cprintf+0x154>
    87a8:	ea000006 	b	87c8 <cprintf+0x154>
    87ac:	e51b3010 	ldr	r3, [fp, #-16]
    87b0:	e5d33000 	ldrb	r3, [r3]
    87b4:	e1a00003 	mov	r0, r3
    87b8:	ebfffe93 	bl	820c <uart_send>
    87bc:	e51b3010 	ldr	r3, [fp, #-16]
    87c0:	e2833001 	add	r3, r3, #1
    87c4:	e50b3010 	str	r3, [fp, #-16]
    87c8:	e51b3010 	ldr	r3, [fp, #-16]
    87cc:	e5d33000 	ldrb	r3, [r3]
    87d0:	e3530000 	cmp	r3, #0
    87d4:	1afffff4 	bne	87ac <cprintf+0x138>
    87d8:	ea000008 	b	8800 <cprintf+0x18c>
    87dc:	e3a00025 	mov	r0, #37	; 0x25
    87e0:	ebfffe89 	bl	820c <uart_send>
    87e4:	ea000005 	b	8800 <cprintf+0x18c>
    87e8:	e3a00025 	mov	r0, #37	; 0x25
    87ec:	ebfffe86 	bl	820c <uart_send>
    87f0:	e51b3014 	ldr	r3, [fp, #-20]	; 0xffffffec
    87f4:	e1a00003 	mov	r0, r3
    87f8:	ebfffe83 	bl	820c <uart_send>
    87fc:	e1a00000 	nop			; (mov r0, r0)
    8800:	e51b3008 	ldr	r3, [fp, #-8]
    8804:	e2833001 	add	r3, r3, #1
    8808:	e50b3008 	str	r3, [fp, #-8]
    880c:	e59b2004 	ldr	r2, [fp, #4]
    8810:	e51b3008 	ldr	r3, [fp, #-8]
    8814:	e0823003 	add	r3, r2, r3
    8818:	e5d33000 	ldrb	r3, [r3]
    881c:	e50b3014 	str	r3, [fp, #-20]	; 0xffffffec
    8820:	e51b3014 	ldr	r3, [fp, #-20]	; 0xffffffec
    8824:	e3530000 	cmp	r3, #0
    8828:	1affff9a 	bne	8698 <cprintf+0x24>
    882c:	e24bd004 	sub	sp, fp, #4
    8830:	e8bd4800 	pop	{fp, lr}
    8834:	e28dd010 	add	sp, sp, #16
    8838:	e12fff1e 	bx	lr
    883c:	00008f00 	andeq	r8, r0, r0, lsl #30

00008840 <copy_vectors>:
    8840:	e52db004 	push	{fp}		; (str fp, [sp, #-4]!)
    8844:	e28db000 	add	fp, sp, #0
    8848:	e24dd00c 	sub	sp, sp, #12
    884c:	e59f3048 	ldr	r3, [pc, #72]	; 889c <copy_vectors+0x5c>
    8850:	e50b3008 	str	r3, [fp, #-8]
    8854:	e3a03000 	mov	r3, #0
    8858:	e50b300c 	str	r3, [fp, #-12]
    885c:	ea000007 	b	8880 <copy_vectors+0x40>
    8860:	e51b300c 	ldr	r3, [fp, #-12]
    8864:	e2832004 	add	r2, r3, #4
    8868:	e50b200c 	str	r2, [fp, #-12]
    886c:	e51b2008 	ldr	r2, [fp, #-8]
    8870:	e2821004 	add	r1, r2, #4
    8874:	e50b1008 	str	r1, [fp, #-8]
    8878:	e5922000 	ldr	r2, [r2]
    887c:	e5832000 	str	r2, [r3]
    8880:	e51b2008 	ldr	r2, [fp, #-8]
    8884:	e59f3014 	ldr	r3, [pc, #20]	; 88a0 <copy_vectors+0x60>
    8888:	e1520003 	cmp	r2, r3
    888c:	3afffff3 	bcc	8860 <copy_vectors+0x20>
    8890:	e24bd000 	sub	sp, fp, #0
    8894:	e49db004 	pop	{fp}		; (ldr fp, [sp], #4)
    8898:	e12fff1e 	bx	lr
    889c:	0000803c 	andeq	r8, r0, ip, lsr r0
    88a0:	0000807c 	andeq	r8, r0, ip, ror r0

000088a4 <secure_swi>:
    88a4:	e92d4800 	push	{fp, lr}
    88a8:	e28db004 	add	fp, sp, #4
    88ac:	e59f0004 	ldr	r0, [pc, #4]	; 88b8 <secure_swi+0x14>
    88b0:	ebffff6f 	bl	8674 <cprintf>
    88b4:	e8bd8800 	pop	{fp, pc}
    88b8:	00008f08 	andeq	r8, r0, r8, lsl #30

000088bc <ns_reset>:
    88bc:	e92d4800 	push	{fp, lr}
    88c0:	e28db004 	add	fp, sp, #4
    88c4:	e59f0004 	ldr	r0, [pc, #4]	; 88d0 <ns_reset+0x14>
    88c8:	ebffff69 	bl	8674 <cprintf>
    88cc:	e8bd8800 	pop	{fp, pc}
    88d0:	00008f28 	andeq	r8, r0, r8, lsr #30

000088d4 <ns_undef>:
    88d4:	e92d4800 	push	{fp, lr}
    88d8:	e28db004 	add	fp, sp, #4
    88dc:	e59f0004 	ldr	r0, [pc, #4]	; 88e8 <ns_undef+0x14>
    88e0:	ebffff63 	bl	8674 <cprintf>
    88e4:	e8bd8800 	pop	{fp, pc}
    88e8:	00008f4c 	andeq	r8, r0, ip, asr #30

000088ec <ns_swi>:
    88ec:	e92d4800 	push	{fp, lr}
    88f0:	e28db004 	add	fp, sp, #4
    88f4:	e59f0004 	ldr	r0, [pc, #4]	; 8900 <ns_swi+0x14>
    88f8:	ebffff5d 	bl	8674 <cprintf>
    88fc:	e8bd8800 	pop	{fp, pc}
    8900:	00008f70 	andeq	r8, r0, r0, ror pc

00008904 <ns_pa>:
    8904:	e92d4800 	push	{fp, lr}
    8908:	e28db004 	add	fp, sp, #4
    890c:	e59f0004 	ldr	r0, [pc, #4]	; 8918 <ns_pa+0x14>
    8910:	ebffff57 	bl	8674 <cprintf>
    8914:	e8bd8800 	pop	{fp, pc}
    8918:	00008f90 	muleq	r0, r0, pc	; <UNPREDICTABLE>

0000891c <ns_da>:
    891c:	e92d4800 	push	{fp, lr}
    8920:	e28db004 	add	fp, sp, #4
    8924:	e59f0004 	ldr	r0, [pc, #4]	; 8930 <ns_da+0x14>
    8928:	ebffff51 	bl	8674 <cprintf>
    892c:	e8bd8800 	pop	{fp, pc}
    8930:	00008f70 	andeq	r8, r0, r0, ror pc

00008934 <ns_irq>:
    8934:	e92d4800 	push	{fp, lr}
    8938:	e28db004 	add	fp, sp, #4
    893c:	e59f0004 	ldr	r0, [pc, #4]	; 8948 <ns_irq+0x14>
    8940:	ebffff4b 	bl	8674 <cprintf>
    8944:	e8bd8800 	pop	{fp, pc}
    8948:	00008fb0 			; <UNDEFINED> instruction: 0x00008fb0

0000894c <ns_fiq>:
    894c:	e92d4800 	push	{fp, lr}
    8950:	e28db004 	add	fp, sp, #4
    8954:	e59f0004 	ldr	r0, [pc, #4]	; 8960 <ns_fiq+0x14>
    8958:	ebffff45 	bl	8674 <cprintf>
    895c:	e8bd8800 	pop	{fp, pc}
    8960:	00008fd0 	ldrdeq	r8, [r0], -r0

00008964 <Normal_World>:
    8964:	e92d4800 	push	{fp, lr}
    8968:	e28db004 	add	fp, sp, #4
    896c:	e24dd008 	sub	sp, sp, #8
    8970:	e59f0034 	ldr	r0, [pc, #52]	; 89ac <Normal_World+0x48>
    8974:	eb0000ea 	bl	8d24 <GET32>
    8978:	e1a03000 	mov	r3, r0
    897c:	e50b3008 	str	r3, [fp, #-8]
    8980:	e59f0028 	ldr	r0, [pc, #40]	; 89b0 <Normal_World+0x4c>
    8984:	e51b1008 	ldr	r1, [fp, #-8]
    8988:	e51b2008 	ldr	r2, [fp, #-8]
    898c:	ebffff38 	bl	8674 <cprintf>
    8990:	e59f001c 	ldr	r0, [pc, #28]	; 89b4 <Normal_World+0x50>
    8994:	ebffff36 	bl	8674 <cprintf>
    8998:	ef000000 	svc	0x00000000
    899c:	e59f0014 	ldr	r0, [pc, #20]	; 89b8 <Normal_World+0x54>
    89a0:	ebffff33 	bl	8674 <cprintf>
    89a4:	e1600070 	smc	0
    89a8:	eafffff0 	b	8970 <Normal_World+0xc>
    89ac:	20003004 	andcs	r3, r0, r4
    89b0:	00008ff0 	strdeq	r8, [r0], -r0
    89b4:	00009010 	andeq	r9, r0, r0, lsl r0
    89b8:	00009024 	andeq	r9, r0, r4, lsr #32

000089bc <bootmain>:
    89bc:	e92d4800 	push	{fp, lr}
    89c0:	e28db004 	add	fp, sp, #4
    89c4:	e24dde1a 	sub	sp, sp, #416	; 0x1a0
    89c8:	ebfffe5d 	bl	8344 <uart_init>
    89cc:	e3a03064 	mov	r3, #100	; 0x64
    89d0:	e50b300c 	str	r3, [fp, #-12]
    89d4:	e3a03000 	mov	r3, #0
    89d8:	e50b3008 	str	r3, [fp, #-8]
    89dc:	ea00000a 	b	8a0c <bootmain+0x50>
    89e0:	e51b2008 	ldr	r2, [fp, #-8]
    89e4:	e59f30cc 	ldr	r3, [pc, #204]	; 8ab8 <bootmain+0xfc>
    89e8:	e1a02102 	lsl	r2, r2, #2
    89ec:	e24b1004 	sub	r1, fp, #4
    89f0:	e0812002 	add	r2, r1, r2
    89f4:	e0823003 	add	r3, r2, r3
    89f8:	e3a02c01 	mov	r2, #256	; 0x100
    89fc:	e5832000 	str	r2, [r3]
    8a00:	e51b3008 	ldr	r3, [fp, #-8]
    8a04:	e2833001 	add	r3, r3, #1
    8a08:	e50b3008 	str	r3, [fp, #-8]
    8a0c:	e51b2008 	ldr	r2, [fp, #-8]
    8a10:	e51b300c 	ldr	r3, [fp, #-12]
    8a14:	e1520003 	cmp	r2, r3
    8a18:	bafffff0 	blt	89e0 <bootmain+0x24>
    8a1c:	e59f0098 	ldr	r0, [pc, #152]	; 8abc <bootmain+0x100>
    8a20:	ebfffea3 	bl	84b4 <uprint>
    8a24:	e51b3178 	ldr	r3, [fp, #-376]	; 0xfffffe88
    8a28:	e1a00003 	mov	r0, r3
    8a2c:	ebfffe15 	bl	8288 <hexstring>
    8a30:	e59f0088 	ldr	r0, [pc, #136]	; 8ac0 <bootmain+0x104>
    8a34:	ebfffe9e 	bl	84b4 <uprint>
    8a38:	e59f0084 	ldr	r0, [pc, #132]	; 8ac4 <bootmain+0x108>
    8a3c:	ebfffe9c 	bl	84b4 <uprint>
    8a40:	e59f0080 	ldr	r0, [pc, #128]	; 8ac8 <bootmain+0x10c>
    8a44:	eb00008b 	bl	8c78 <monitorInit>
    8a48:	e59f007c 	ldr	r0, [pc, #124]	; 8acc <bootmain+0x110>
    8a4c:	ebfffe98 	bl	84b4 <uprint>
    8a50:	e3a03000 	mov	r3, #0
    8a54:	e50b3008 	str	r3, [fp, #-8]
    8a58:	ea000012 	b	8aa8 <bootmain+0xec>
    8a5c:	e59f006c 	ldr	r0, [pc, #108]	; 8ad0 <bootmain+0x114>
    8a60:	ebffff03 	bl	8674 <cprintf>
    8a64:	e59f0068 	ldr	r0, [pc, #104]	; 8ad4 <bootmain+0x118>
    8a68:	eb0000ad 	bl	8d24 <GET32>
    8a6c:	e1a03000 	mov	r3, r0
    8a70:	e50b3010 	str	r3, [fp, #-16]
    8a74:	e1600070 	smc	0
    8a78:	e59f0058 	ldr	r0, [pc, #88]	; 8ad8 <bootmain+0x11c>
    8a7c:	e51b1010 	ldr	r1, [fp, #-16]
    8a80:	e51b2010 	ldr	r2, [fp, #-16]
    8a84:	ebfffefa 	bl	8674 <cprintf>
    8a88:	e59f004c 	ldr	r0, [pc, #76]	; 8adc <bootmain+0x120>
    8a8c:	ebfffef8 	bl	8674 <cprintf>
    8a90:	ef000000 	svc	0x00000000
    8a94:	e59f0044 	ldr	r0, [pc, #68]	; 8ae0 <bootmain+0x124>
    8a98:	ebfffef5 	bl	8674 <cprintf>
    8a9c:	e51b3008 	ldr	r3, [fp, #-8]
    8aa0:	e2833001 	add	r3, r3, #1
    8aa4:	e50b3008 	str	r3, [fp, #-8]
    8aa8:	e51b3008 	ldr	r3, [fp, #-8]
    8aac:	e3530009 	cmp	r3, #9
    8ab0:	daffffe9 	ble	8a5c <bootmain+0xa0>
    8ab4:	eafffffe 	b	8ab4 <bootmain+0xf8>
    8ab8:	fffffe64 			; <UNDEFINED> instruction: 0xfffffe64
    8abc:	00009038 	andeq	r9, r0, r8, lsr r0
    8ac0:	0000905c 	andeq	r9, r0, ip, asr r0
    8ac4:	00009070 	andeq	r9, r0, r0, ror r0
    8ac8:	00008964 	andeq	r8, r0, r4, ror #18
    8acc:	00009080 	andeq	r9, r0, r0, lsl #1
    8ad0:	000090a0 	andeq	r9, r0, r0, lsr #1
    8ad4:	20003004 	andcs	r3, r0, r4
    8ad8:	000090bc 	strheq	r9, [r0], -ip
    8adc:	000090d4 	ldrdeq	r9, [r0], -r4
    8ae0:	000090e8 	andeq	r9, r0, r8, ror #1

00008ae4 <__aeabi_uidiv>:
    8ae4:	e2512001 	subs	r2, r1, #1
    8ae8:	012fff1e 	bxeq	lr
    8aec:	3a000036 	bcc	8bcc <__aeabi_uidiv+0xe8>
    8af0:	e1500001 	cmp	r0, r1
    8af4:	9a000022 	bls	8b84 <__aeabi_uidiv+0xa0>
    8af8:	e1110002 	tst	r1, r2
    8afc:	0a000023 	beq	8b90 <__aeabi_uidiv+0xac>
    8b00:	e311020e 	tst	r1, #-536870912	; 0xe0000000
    8b04:	01a01181 	lsleq	r1, r1, #3
    8b08:	03a03008 	moveq	r3, #8
    8b0c:	13a03001 	movne	r3, #1
    8b10:	e3510201 	cmp	r1, #268435456	; 0x10000000
    8b14:	31510000 	cmpcc	r1, r0
    8b18:	31a01201 	lslcc	r1, r1, #4
    8b1c:	31a03203 	lslcc	r3, r3, #4
    8b20:	3afffffa 	bcc	8b10 <__aeabi_uidiv+0x2c>
    8b24:	e3510102 	cmp	r1, #-2147483648	; 0x80000000
    8b28:	31510000 	cmpcc	r1, r0
    8b2c:	31a01081 	lslcc	r1, r1, #1
    8b30:	31a03083 	lslcc	r3, r3, #1
    8b34:	3afffffa 	bcc	8b24 <__aeabi_uidiv+0x40>
    8b38:	e3a02000 	mov	r2, #0
    8b3c:	e1500001 	cmp	r0, r1
    8b40:	20400001 	subcs	r0, r0, r1
    8b44:	21822003 	orrcs	r2, r2, r3
    8b48:	e15000a1 	cmp	r0, r1, lsr #1
    8b4c:	204000a1 	subcs	r0, r0, r1, lsr #1
    8b50:	218220a3 	orrcs	r2, r2, r3, lsr #1
    8b54:	e1500121 	cmp	r0, r1, lsr #2
    8b58:	20400121 	subcs	r0, r0, r1, lsr #2
    8b5c:	21822123 	orrcs	r2, r2, r3, lsr #2
    8b60:	e15001a1 	cmp	r0, r1, lsr #3
    8b64:	204001a1 	subcs	r0, r0, r1, lsr #3
    8b68:	218221a3 	orrcs	r2, r2, r3, lsr #3
    8b6c:	e3500000 	cmp	r0, #0
    8b70:	11b03223 	lsrsne	r3, r3, #4
    8b74:	11a01221 	lsrne	r1, r1, #4
    8b78:	1affffef 	bne	8b3c <__aeabi_uidiv+0x58>
    8b7c:	e1a00002 	mov	r0, r2
    8b80:	e12fff1e 	bx	lr
    8b84:	03a00001 	moveq	r0, #1
    8b88:	13a00000 	movne	r0, #0
    8b8c:	e12fff1e 	bx	lr
    8b90:	e3510801 	cmp	r1, #65536	; 0x10000
    8b94:	21a01821 	lsrcs	r1, r1, #16
    8b98:	23a02010 	movcs	r2, #16
    8b9c:	33a02000 	movcc	r2, #0
    8ba0:	e3510c01 	cmp	r1, #256	; 0x100
    8ba4:	21a01421 	lsrcs	r1, r1, #8
    8ba8:	22822008 	addcs	r2, r2, #8
    8bac:	e3510010 	cmp	r1, #16
    8bb0:	21a01221 	lsrcs	r1, r1, #4
    8bb4:	22822004 	addcs	r2, r2, #4
    8bb8:	e3510004 	cmp	r1, #4
    8bbc:	82822003 	addhi	r2, r2, #3
    8bc0:	908220a1 	addls	r2, r2, r1, lsr #1
    8bc4:	e1a00230 	lsr	r0, r0, r2
    8bc8:	e12fff1e 	bx	lr
    8bcc:	e3500000 	cmp	r0, #0
    8bd0:	13e00000 	mvnne	r0, #0
    8bd4:	ea000007 	b	8bf8 <__aeabi_idiv0>

00008bd8 <__aeabi_uidivmod>:
    8bd8:	e3510000 	cmp	r1, #0
    8bdc:	0afffffa 	beq	8bcc <__aeabi_uidiv+0xe8>
    8be0:	e92d4003 	push	{r0, r1, lr}
    8be4:	ebffffbe 	bl	8ae4 <__aeabi_uidiv>
    8be8:	e8bd4006 	pop	{r1, r2, lr}
    8bec:	e0030092 	mul	r3, r2, r0
    8bf0:	e0411003 	sub	r1, r1, r3
    8bf4:	e12fff1e 	bx	lr

00008bf8 <__aeabi_idiv0>:
    8bf8:	e12fff1e 	bx	lr

Disassembly of section .init:

00008c00 <monitor>:
    8c00:	e1a00000 	nop			; (mov r0, r0)
    8c04:	e1a00000 	nop			; (mov r0, r0)
    8c08:	ea000004 	b	8c20 <SMC_Handler>
    8c0c:	e1a00000 	nop			; (mov r0, r0)
    8c10:	e1a00000 	nop			; (mov r0, r0)
    8c14:	e1a00000 	nop			; (mov r0, r0)
    8c18:	e1a00000 	nop			; (mov r0, r0)
    8c1c:	e1a00000 	nop			; (mov r0, r0)

00008c20 <SMC_Handler>:
    8c20:	e92d000f 	push	{r0, r1, r2, r3}
    8c24:	ee110f11 	mrc	15, 0, r0, cr1, cr1, {0}
    8c28:	e3100001 	tst	r0, #1
    8c2c:	e2200001 	eor	r0, r0, #1
    8c30:	ee010f11 	mcr	15, 0, r0, cr1, cr1, {0}
    8c34:	059f0298 	ldreq	r0, [pc, #664]	; 8ed4 <ns_FIQHandler+0x10>
    8c38:	159f0298 	ldrne	r0, [pc, #664]	; 8ed8 <ns_FIQHandler+0x14>
    8c3c:	e5902000 	ldr	r2, [r0]
    8c40:	059f1290 	ldreq	r1, [pc, #656]	; 8ed8 <ns_FIQHandler+0x14>
    8c44:	159f1288 	ldrne	r1, [pc, #648]	; 8ed4 <ns_FIQHandler+0x10>
    8c48:	e5913000 	ldr	r3, [r1]
    8c4c:	e9221ff0 	stmdb	r2!, {r4, r5, r6, r7, r8, r9, sl, fp, ip}
    8c50:	e14f4000 	mrs	r4, SPSR
    8c54:	e9224010 	stmdb	r2!, {r4, lr}
    8c58:	e5802000 	str	r2, [r0]
    8c5c:	e8b34001 	ldm	r3!, {r0, lr}
    8c60:	e16ff000 	msr	SPSR_fsxc, r0
    8c64:	e8b31ff0 	ldm	r3!, {r4, r5, r6, r7, r8, r9, sl, fp, ip}
    8c68:	e5813000 	str	r3, [r1]
    8c6c:	f57ff01f 	clrex
    8c70:	e8bd000f 	pop	{r0, r1, r2, r3}
    8c74:	e1b0f00e 	movs	pc, lr

00008c78 <monitorInit>:
    8c78:	e59f125c 	ldr	r1, [pc, #604]	; 8edc <ns_FIQHandler+0x18>
    8c7c:	e5810000 	str	r0, [r1]
    8c80:	e59f0258 	ldr	r0, [pc, #600]	; 8ee0 <ns_FIQHandler+0x1c>
    8c84:	ee0c0f30 	mcr	15, 0, r0, cr12, cr0, {1}
    8c88:	e59f0254 	ldr	r0, [pc, #596]	; 8ee4 <ns_FIQHandler+0x20>
    8c8c:	ee0c0f10 	mcr	15, 0, r0, cr12, cr0, {0}
    8c90:	e59f0250 	ldr	r0, [pc, #592]	; 8ee8 <ns_FIQHandler+0x24>
    8c94:	e9201ff0 	stmdb	r0!, {r4, r5, r6, r7, r8, r9, sl, fp, ip}
    8c98:	e10f1000 	mrs	r1, CPSR
    8c9c:	e9204002 	stmdb	r0!, {r1, lr}
    8ca0:	f1020016 	cps	#22
    8ca4:	e59f1228 	ldr	r1, [pc, #552]	; 8ed4 <ns_FIQHandler+0x10>
    8ca8:	e5810000 	str	r0, [r1]
    8cac:	e59f0224 	ldr	r0, [pc, #548]	; 8ed8 <ns_FIQHandler+0x14>
    8cb0:	e59f1234 	ldr	r1, [pc, #564]	; 8eec <ns_FIQHandler+0x28>
    8cb4:	e5801000 	str	r1, [r0]
    8cb8:	e59fe17c 	ldr	lr, [pc, #380]	; 8e3c <ns_image>
    8cbc:	e36ff013 	msr	SPSR_fsxc, #19
    8cc0:	ee114f11 	mrc	15, 0, r4, cr1, cr1, {0}
    8cc4:	e3844001 	orr	r4, r4, #1
    8cc8:	ee014f11 	mcr	15, 0, r4, cr1, cr1, {0}
    8ccc:	e59f021c 	ldr	r0, [pc, #540]	; 8ef0 <ns_FIQHandler+0x2c>
    8cd0:	ee0c0f10 	mcr	15, 0, r0, cr12, cr0, {0}
    8cd4:	e3a00000 	mov	r0, #0
    8cd8:	e3a01000 	mov	r1, #0
    8cdc:	e3a02000 	mov	r2, #0
    8ce0:	e3a03000 	mov	r3, #0
    8ce4:	e3a04000 	mov	r4, #0
    8ce8:	e3a05000 	mov	r5, #0
    8cec:	e3a06000 	mov	r6, #0
    8cf0:	e3a07000 	mov	r7, #0
    8cf4:	e3a08000 	mov	r8, #0
    8cf8:	e3a09000 	mov	r9, #0
    8cfc:	e3a0a000 	mov	sl, #0
    8d00:	e3a0b000 	mov	fp, #0
    8d04:	e3a0c000 	mov	ip, #0
    8d08:	e1b0f00e 	movs	pc, lr

00008d0c <PUT32>:
    8d0c:	e5801000 	str	r1, [r0]
    8d10:	e12fff1e 	bx	lr

00008d14 <PUT16>:
    8d14:	e1c010b0 	strh	r1, [r0]
    8d18:	e12fff1e 	bx	lr

00008d1c <PUT8>:
    8d1c:	e5c01000 	strb	r1, [r0]
    8d20:	e12fff1e 	bx	lr

00008d24 <GET32>:
    8d24:	e5900000 	ldr	r0, [r0]
    8d28:	e12fff1e 	bx	lr

00008d2c <GETPC>:
    8d2c:	e1a0000e 	mov	r0, lr
    8d30:	e12fff1e 	bx	lr

00008d34 <BRANCHTO>:
    8d34:	e12fff10 	bx	r0

00008d38 <dummy>:
    8d38:	e12fff1e 	bx	lr

00008d3c <NS_STACK_BASE>:
	...

00008db8 <NS_STACK_LIMIT>:
	...

00008e34 <NS_STACK_SP>:
    8e34:	00000000 	andeq	r0, r0, r0

00008e38 <S_STACK_SP>:
    8e38:	00000000 	andeq	r0, r0, r0

00008e3c <ns_image>:
    8e3c:	00000000 	andeq	r0, r0, r0

00008e40 <UndefHandler>:
    8e40:	eafffffe 	b	8e40 <UndefHandler>

00008e44 <SWIHandler>:
    8e44:	e52de004 	push	{lr}		; (str lr, [sp, #-4]!)
    8e48:	ebfffe95 	bl	88a4 <secure_swi>
    8e4c:	e49de004 	pop	{lr}		; (ldr lr, [sp], #4)
    8e50:	e1a0f00e 	mov	pc, lr

00008e54 <PAbortHandler>:
    8e54:	eafffffe 	b	8e54 <PAbortHandler>

00008e58 <DAbortHandler>:
    8e58:	eafffffe 	b	8e58 <DAbortHandler>

00008e5c <IRQHandler>:
    8e5c:	eafffffe 	b	8e5c <IRQHandler>

00008e60 <FIQHandler>:
    8e60:	eafffffe 	b	8e60 <FIQHandler>

00008e64 <ns_ResetHandler>:
    8e64:	e52de004 	push	{lr}		; (str lr, [sp, #-4]!)
    8e68:	ebfffe93 	bl	88bc <ns_reset>
    8e6c:	e49de004 	pop	{lr}		; (ldr lr, [sp], #4)
    8e70:	e1a0f00e 	mov	pc, lr

00008e74 <ns_UndefHandler>:
    8e74:	e52de004 	push	{lr}		; (str lr, [sp, #-4]!)
    8e78:	ebfffe95 	bl	88d4 <ns_undef>
    8e7c:	e49de004 	pop	{lr}		; (ldr lr, [sp], #4)
    8e80:	e1a0f00e 	mov	pc, lr

00008e84 <ns_SWIHandler>:
    8e84:	e52de004 	push	{lr}		; (str lr, [sp, #-4]!)
    8e88:	ebfffe97 	bl	88ec <ns_swi>
    8e8c:	e49de004 	pop	{lr}		; (ldr lr, [sp], #4)
    8e90:	e1a0f00e 	mov	pc, lr

00008e94 <ns_PAbortHandler>:
    8e94:	e52de004 	push	{lr}		; (str lr, [sp, #-4]!)
    8e98:	ebfffe99 	bl	8904 <ns_pa>
    8e9c:	e49de004 	pop	{lr}		; (ldr lr, [sp], #4)
    8ea0:	e1a0f00e 	mov	pc, lr

00008ea4 <ns_DAbortHandler>:
    8ea4:	e52de004 	push	{lr}		; (str lr, [sp, #-4]!)
    8ea8:	ebfffe9b 	bl	891c <ns_da>
    8eac:	e49de004 	pop	{lr}		; (ldr lr, [sp], #4)
    8eb0:	e1a0f00e 	mov	pc, lr

00008eb4 <ns_IRQHandler>:
    8eb4:	e52de004 	push	{lr}		; (str lr, [sp, #-4]!)
    8eb8:	ebfffe9d 	bl	8934 <ns_irq>
    8ebc:	e49de004 	pop	{lr}		; (ldr lr, [sp], #4)
    8ec0:	e1a0f00e 	mov	pc, lr

00008ec4 <ns_FIQHandler>:
    8ec4:	e52de004 	push	{lr}		; (str lr, [sp, #-4]!)
    8ec8:	ebfffe9f 	bl	894c <ns_fiq>
    8ecc:	e49de004 	pop	{lr}		; (ldr lr, [sp], #4)
    8ed0:	e1a0f00e 	mov	pc, lr
    8ed4:	00008e38 	andeq	r8, r0, r8, lsr lr
    8ed8:	00008e34 	andeq	r8, r0, r4, lsr lr
    8edc:	00008e3c 	andeq	r8, r0, ip, lsr lr
    8ee0:	00008c00 	andeq	r8, r0, r0, lsl #24
    8ee4:	00008000 	andeq	r8, r0, r0
    8ee8:	00008e34 	andeq	r8, r0, r4, lsr lr
    8eec:	00008db8 			; <UNDEFINED> instruction: 0x00008db8
    8ef0:	0000803c 	andeq	r8, r0, ip, lsr r0
    8ef4:	e1a00000 	nop			; (mov r0, r0)
    8ef8:	e1a00000 	nop			; (mov r0, r0)
    8efc:	e1a00000 	nop			; (mov r0, r0)
